target datalayout = "e-m:e-p270:32:32-p271:32:32-p272:64:64-i64:64-i128:128-f80:128-n8:16:32:64-S128"
target triple = "x86_64-pc-linux-gnu"

%struct.SDL_AudioStream = type { ptr, i32, ptr, ptr, ptr, ptr, %struct.SDL_AudioSpec, %struct.SDL_AudioSpec, ptr, ptr, float, float, ptr, %struct.SDL_AudioSpec, ptr, [8 x i32], i64, ptr, i64, i8, ptr, ptr, ptr, ptr, ptr }
%struct.SDL_AudioSpec = type { i32, i32, i32 }

@.str = private unnamed_addr constant [26 x i8] c"Parameter '%s' is invalid\00", align 1
@.str.1 = private unnamed_addr constant [7 x i8] c"stream\00", align 1

; Function Attrs: nounwind uwtable
define hidden zeroext i1 @SDL_ClearAudioStream_REAL(ptr noundef %0) #0 {
  %2 = alloca i1, align 1
  %3 = alloca ptr, align 8
  store ptr %0, ptr %3, align 8
  %4 = load ptr, ptr %3, align 8
  %5 = icmp ne ptr %4, null
  br i1 %5, label %8, label %6

6:                                                ; preds = %1
  %7 = call zeroext i1 (ptr, ...) @SDL_SetError_REAL(ptr noundef @.str, ptr noundef @.str.1)
  store i1 %7, ptr %2, align 1
  br label %24

8:                                                ; preds = %1
  %9 = load ptr, ptr %3, align 8
  %10 = getelementptr inbounds nuw %struct.SDL_AudioStream, ptr %9, i32 0, i32 0
  %11 = load ptr, ptr %10, align 8
  call void @SDL_LockMutex_REAL(ptr noundef %11)
  %12 = load ptr, ptr %3, align 8
  %13 = getelementptr inbounds nuw %struct.SDL_AudioStream, ptr %12, i32 0, i32 12
  %14 = load ptr, ptr %13, align 8
  call void @SDL_ClearAudioQueue(ptr noundef %14)
  %15 = load ptr, ptr %3, align 8
  %16 = getelementptr inbounds nuw %struct.SDL_AudioStream, ptr %15, i32 0, i32 13
  call void @llvm.memset.p0.i64(ptr align 8 %16, i8 0, i64 12, i1 false)
  %17 = load ptr, ptr %3, align 8
  %18 = getelementptr inbounds nuw %struct.SDL_AudioStream, ptr %17, i32 0, i32 14
  store ptr null, ptr %18, align 8
  %19 = load ptr, ptr %3, align 8
  %20 = getelementptr inbounds nuw %struct.SDL_AudioStream, ptr %19, i32 0, i32 16
  store i64 0, ptr %20, align 8
  %21 = load ptr, ptr %3, align 8
  %22 = getelementptr inbounds nuw %struct.SDL_AudioStream, ptr %21, i32 0, i32 0
  %23 = load ptr, ptr %22, align 8
  call void @SDL_UnlockMutex_REAL(ptr noundef %23)
  store i1 true, ptr %2, align 1
  br label %24

24:                                               ; preds = %8, %6
  %25 = load i1, ptr %2, align 1
  ret i1 %25
}