; Function Attrs: nounwind uwtable
define hidden zeroext i1 @SDL_ClearAudioStream_REAL(ptr noundef captures(address_is_null) %0) local_unnamed_addr #2 {
  %.not = icmp eq ptr %0, null
  br i1 %.not, label %2, label %4

2:                                                ; preds = %1
  %3 = tail call zeroext i1 (ptr, ...) @SDL_SetError_REAL(ptr noundef nonnull @.str, ptr noundef nonnull @.str.1) #11
  br label %12

4:                                                ; preds = %1
  %5 = load ptr, ptr %0, align 8
  tail call void @SDL_LockMutex_REAL(ptr noundef %5) #11
  %6 = getelementptr inbounds nuw i8, ptr %0, i64 96
  %7 = load ptr, ptr %6, align 8
  tail call void @SDL_ClearAudioQueue(ptr noundef %7) #11
  %8 = getelementptr inbounds nuw i8, ptr %0, i64 104
  tail call void @llvm.memset.p0.i64(ptr noundef nonnull align 8 dereferenceable(12) %8, i8 0, i64 12, i1 false)
  %9 = getelementptr inbounds nuw i8, ptr %0, i64 120
  store ptr null, ptr %9, align 8
  %10 = getelementptr inbounds nuw i8, ptr %0, i64 160
  store i64 0, ptr %10, align 8
  %11 = load ptr, ptr %0, align 8
  tail call void @SDL_UnlockMutex_REAL(ptr noundef %11) #11
  br label %12

12:                                               ; preds = %4, %2
  %.0 = phi i1 [ true, %4 ], [ %3, %2 ]
  ret i1 %.0
}